target datalayout = "e-m:e-p270:32:32-p271:32:32-p272:64:64-i64:64-i128:128-f80:128-n8:16:32:64-S128"
target triple = "x86_64-pc-linux-gnu"

%"class.google::protobuf::UnknownFieldSet" = type { %"class.std::vector" }
%"class.std::vector" = type { %"struct.std::_Vector_base" }
%"struct.std::_Vector_base" = type { %"struct.std::_Vector_base<google::protobuf::UnknownField, std::allocator<google::protobuf::UnknownField>>::_Vector_impl" }
%"struct.std::_Vector_base<google::protobuf::UnknownField, std::allocator<google::protobuf::UnknownField>>::_Vector_impl" = type { %"struct.std::_Vector_base<google::protobuf::UnknownField, std::allocator<google::protobuf::UnknownField>>::_Vector_impl_data" }
%"struct.std::_Vector_base<google::protobuf::UnknownField, std::allocator<google::protobuf::UnknownField>>::_Vector_impl_data" = type { ptr, ptr, ptr }
%"struct.google::protobuf::internal::InternalMetadata::Container" = type { %"struct.google::protobuf::internal::InternalMetadata::ContainerBase", %"class.google::protobuf::UnknownFieldSet" }
%"struct.google::protobuf::internal::InternalMetadata::ContainerBase" = type { ptr }
%"class.google::protobuf::internal::CachedSize" = type { %"struct.std::atomic" }
%"struct.std::atomic" = type { %"struct.std::__atomic_base" }
%"struct.std::__atomic_base" = type { i32 }
%"class.google::protobuf::internal::InternalMetadata" = type { i64 }

; Function Attrs: noinline noreturn nounwind uwtable
define linkonce_odr hidden void @__clang_call_terminate(ptr noundef %0) #19 comdat {
  %2 = call ptr @__cxa_begin_catch(ptr %0) #3
  call void @_ZSt9terminatev() #22
  unreachable
}

; Function Attrs: mustprogress nounwind uwtable
define linkonce_odr noundef i32 @_ZStanSt12memory_orderSt23__memory_order_modifier(i32 noundef %0, i32 noundef %1) #9 comdat {
  %3 = alloca i32, align 4
  %4 = alloca i32, align 4
  store i32 %0, ptr %3, align 4, !tbaa !562
  store i32 %1, ptr %4, align 4, !tbaa !564
  %5 = load i32, ptr %3, align 4, !tbaa !562
  %6 = load i32, ptr %4, align 4, !tbaa !564
  %7 = and i32 %5, %6
  ret i32 %7
}

; Function Attrs: alwaysinline mustprogress nounwind uwtable
define linkonce_odr hidden noundef zeroext i1 @_ZNK6google8protobuf8internal16InternalMetadata19HasUnknownFieldsTagEv(ptr noundef nonnull align 8 dereferenceable(8) %0) #12 comdat align 2 {
  %2 = alloca ptr, align 8
  store ptr %0, ptr %2, align 8, !tbaa !309
  %3 = load ptr, ptr %2, align 8
  %4 = getelementptr inbounds nuw %"class.google::protobuf::internal::InternalMetadata", ptr %3, i32 0, i32 0
  %5 = load i64, ptr %4, align 8, !tbaa !352
  %6 = and i64 %5, 1
  %7 = icmp ne i64 %6, 0
  ret i1 %7
}

; Function Attrs: alwaysinline mustprogress nounwind uwtable
define linkonce_odr hidden void @_ZNSt13__atomic_baseIiE5storeEiSt12memory_order(ptr noundef nonnull align 4 dereferenceable(4) %0, i32 noundef %1, i32 noundef %2) #12 comdat align 2 personality ptr @__gxx_personality_v0 {
  %4 = alloca ptr, align 8
  %5 = alloca i32, align 4
  %6 = alloca i32, align 4
  %7 = alloca i32, align 4
  %8 = alloca i32, align 4
  store ptr %0, ptr %4, align 8, !tbaa !560
  store i32 %1, ptr %5, align 4, !tbaa !10
  store i32 %2, ptr %6, align 4, !tbaa !562
  %9 = load ptr, ptr %4, align 8
  call void @llvm.lifetime.start.p0(i64 4, ptr %7) #3
  %10 = load i32, ptr %6, align 4, !tbaa !562
  %11 = invoke noundef i32 @_ZStanSt12memory_orderSt23__memory_order_modifier(i32 noundef %10, i32 noundef 65535)
          to label %12 unwind label %32

12:                                               ; preds = %3
  store i32 %11, ptr %7, align 4, !tbaa !562
  br label %13

13:                                               ; preds = %12
  br label %14

14:                                               ; preds = %13
  br label %15

15:                                               ; preds = %14
  br label %16

16:                                               ; preds = %15
  br label %17

17:                                               ; preds = %16
  br label %18

18:                                               ; preds = %17
  br label %19

19:                                               ; preds = %18
  br label %20

20:                                               ; preds = %19
  br label %21

21:                                               ; preds = %20
  %22 = getelementptr inbounds nuw %"struct.std::__atomic_base", ptr %9, i32 0, i32 0
  %23 = load i32, ptr %6, align 4, !tbaa !562
  %24 = load i32, ptr %5, align 4, !tbaa !10
  store i32 %24, ptr %8, align 4, !tbaa !10
  switch i32 %23, label %25 [
    i32 3, label %27
    i32 5, label %29
  ]

25:                                               ; preds = %21
  %26 = load i32, ptr %8, align 4
  store atomic i32 %26, ptr %22 monotonic, align 4
  br label %31

27:                                               ; preds = %21
  %28 = load i32, ptr %8, align 4
  store atomic i32 %28, ptr %22 release, align 4
  br label %31

29:                                               ; preds = %21
  %30 = load i32, ptr %8, align 4
  store atomic i32 %30, ptr %22 seq_cst, align 4
  br label %31

31:                                               ; preds = %29, %27, %25
  call void @llvm.lifetime.end.p0(i64 4, ptr %7) #3
  ret void

32:                                               ; preds = %3
  %33 = landingpad { ptr, i32 }
          catch ptr null
  %34 = extractvalue { ptr, i32 } %33, 0
  call void @__clang_call_terminate(ptr %34) #22
  unreachable
}

; Function Attrs: mustprogress nounwind uwtable
define linkonce_odr hidden noundef ptr @_ZNK6google8protobuf8internal16InternalMetadata8PtrValueINS2_9ContainerINS0_15UnknownFieldSetEEEEEPT_v(ptr noundef nonnull align 8 dereferenceable(8) %0) #9 comdat align 2 {
  %2 = alloca ptr, align 8
  store ptr %0, ptr %2, align 8, !tbaa !309
  %3 = load ptr, ptr %2, align 8
  %4 = getelementptr inbounds nuw %"class.google::protobuf::internal::InternalMetadata", ptr %3, i32 0, i32 0
  %5 = load i64, ptr %4, align 8, !tbaa !352
  %6 = and i64 %5, -4
  %7 = inttoptr i64 %6 to ptr
  ret ptr %7
}

; Function Attrs: alwaysinline mustprogress uwtable
define linkonce_odr hidden noundef zeroext i1 @_ZNK6google8protobuf8internal16InternalMetadata19have_unknown_fieldsEv(ptr noundef nonnull align 8 dereferenceable(8) %0) #8 comdat align 2 {
  %2 = alloca ptr, align 8
  store ptr %0, ptr %2, align 8, !tbaa !309
  %3 = load ptr, ptr %2, align 8
  %4 = call noundef zeroext i1 @_ZNK6google8protobuf8internal16InternalMetadata19HasUnknownFieldsTagEv(ptr noundef nonnull align 8 dereferenceable(8) %3)
  ret i1 %4
}

; Function Attrs: mustprogress nounwind uwtable
define linkonce_odr hidden void @_ZN6google8protobuf8internal10CachedSize3SetEi(ptr noundef nonnull align 4 dereferenceable(4) %0, i32 noundef %1) #9 comdat align 2 {
  %3 = alloca ptr, align 8
  %4 = alloca i32, align 4
  store ptr %0, ptr %3, align 8, !tbaa !311
  store i32 %1, ptr %4, align 4, !tbaa !10
  %5 = load ptr, ptr %3, align 8
  %6 = getelementptr inbounds nuw %"class.google::protobuf::internal::CachedSize", ptr %5, i32 0, i32 0
  %7 = load i32, ptr %4, align 4, !tbaa !10
  call void @_ZNSt13__atomic_baseIiE5storeEiSt12memory_order(ptr noundef nonnull align 4 dereferenceable(4) %6, i32 noundef %7, i32 noundef 0) #3
  ret void
}

; Function Attrs: inlinehint mustprogress nounwind uwtable
define linkonce_odr hidden noundef i32 @_ZN6google8protobuf8internal12ToCachedSizeEm(i64 noundef %0) #6 comdat {
  %2 = alloca i64, align 8
  store i64 %0, ptr %2, align 8, !tbaa !17
  %3 = load i64, ptr %2, align 8, !tbaa !17
  %4 = trunc i64 %3 to i32
  ret i32 %4
}

; Function Attrs: alwaysinline mustprogress uwtable
define linkonce_odr hidden noundef nonnull align 8 dereferenceable(24) ptr @_ZNK6google8protobuf8internal16InternalMetadata14unknown_fieldsINS0_15UnknownFieldSetEEERKT_PFS7_vE(ptr noundef nonnull align 8 dereferenceable(8) %0, ptr noundef %1) #8 comdat align 2 {
  %3 = alloca ptr, align 8
  %4 = alloca ptr, align 8
  %5 = alloca ptr, align 8
  store ptr %0, ptr %4, align 8, !tbaa !309
  store ptr %1, ptr %5, align 8, !tbaa !44
  %6 = load ptr, ptr %4, align 8
  %7 = call noundef zeroext i1 @_ZNK6google8protobuf8internal16InternalMetadata19have_unknown_fieldsEv(ptr noundef nonnull align 8 dereferenceable(8) %6)
  %8 = zext i1 %7 to i64
  %9 = call i64 @llvm.expect.i64(i64 %8, i64 0)
  %10 = icmp ne i64 %9, 0
  br i1 %10, label %11, label %14

11:                                               ; preds = %2
  %12 = call noundef ptr @_ZNK6google8protobuf8internal16InternalMetadata8PtrValueINS2_9ContainerINS0_15UnknownFieldSetEEEEEPT_v(ptr noundef nonnull align 8 dereferenceable(8) %6)
  %13 = getelementptr inbounds nuw %"struct.google::protobuf::internal::InternalMetadata::Container", ptr %12, i32 0, i32 1
  store ptr %13, ptr %3, align 8
  br label %17

14:                                               ; preds = %2
  %15 = load ptr, ptr %5, align 8, !tbaa !44
  %16 = call noundef nonnull align 8 dereferenceable(24) ptr %15()
  store ptr %16, ptr %3, align 8
  br label %17

17:                                               ; preds = %14, %11
  %18 = load ptr, ptr %3, align 8
  ret ptr %18
}

; Function Attrs: mustprogress uwtable
define hidden noundef i64 @_ZN6google8protobuf8internal24ComputeUnknownFieldsSizeERKNS1_16InternalMetadataEmPNS1_10CachedSizeE(ptr noundef nonnull align 8 dereferenceable(8) %0, i64 noundef %1, ptr noundef %2) #4 {
  %4 = alloca ptr, align 8
  %5 = alloca i64, align 8
  %6 = alloca ptr, align 8
  store ptr %0, ptr %4, align 8, !tbaa !309
  store i64 %1, ptr %5, align 8, !tbaa !17
  store ptr %2, ptr %6, align 8, !tbaa !311
  %7 = load ptr, ptr %4, align 8, !tbaa !309
  %8 = call noundef nonnull align 8 dereferenceable(24) ptr @_ZNK6google8protobuf8internal16InternalMetadata14unknown_fieldsINS0_15UnknownFieldSetEEERKT_PFS7_vE(ptr noundef nonnull align 8 dereferenceable(8) %7, ptr noundef @_ZN6google8protobuf15UnknownFieldSet16default_instanceEv)
  %9 = call noundef i64 @_ZN6google8protobuf8internal10WireFormat24ComputeUnknownFieldsSizeERKNS0_15UnknownFieldSetE(ptr noundef nonnull align 8 dereferenceable(24) %8)
  %10 = load i64, ptr %5, align 8, !tbaa !17
  %11 = add i64 %10, %9
  store i64 %11, ptr %5, align 8, !tbaa !17
  %12 = load ptr, ptr %6, align 8, !tbaa !311
  %13 = load i64, ptr %5, align 8, !tbaa !17
  %14 = call noundef i32 @_ZN6google8protobuf8internal12ToCachedSizeEm(i64 noundef %13)
  call void @_ZN6google8protobuf8internal10CachedSize3SetEi(ptr noundef nonnull align 4 dereferenceable(4) %12, i32 noundef %14)
  %15 = load i64, ptr %5, align 8, !tbaa !17
  ret i64 %15
}