; Function Attrs: mustprogress uwtable
define hidden noundef i64 @_ZN6google8protobuf8internal24ComputeUnknownFieldsSizeERKNS1_16InternalMetadataEmPNS1_10CachedSizeE(ptr noundef nonnull readonly align 8 captures(none) dereferenceable(8) %0, i64 noundef %1, ptr noundef writeonly captures(none) %2) local_unnamed_addr #3 personality ptr @__gxx_personality_v0 {
  %4 = load i64, ptr %0, align 8, !tbaa !259
  %5 = and i64 %4, 1
  %.not = icmp eq i64 %5, 0
  br i1 %.not, label %10, label %6, !prof !19

6:                                                ; preds = %3
  %7 = and i64 %4, -4
  %8 = inttoptr i64 %7 to ptr
  %9 = getelementptr inbounds nuw i8, ptr %8, i64 8
  br label %_ZNK6google8protobuf8internal16InternalMetadata14unknown_fieldsINS0_15UnknownFieldSetEEERKT_PFS7_vE.exit

10:                                               ; preds = %3
  %11 = tail call noundef nonnull align 8 dereferenceable(24) ptr @_ZN6google8protobuf15UnknownFieldSet16default_instanceEv()
  br label %_ZNK6google8protobuf8internal16InternalMetadata14unknown_fieldsINS0_15UnknownFieldSetEEERKT_PFS7_vE.exit

_ZNK6google8protobuf8internal16InternalMetadata14unknown_fieldsINS0_15UnknownFieldSetEEERKT_PFS7_vE.exit: ; preds = %6, %10
  %.0.i = phi ptr [ %9, %6 ], [ %11, %10 ]
  %12 = tail call noundef i64 @_ZN6google8protobuf8internal10WireFormat24ComputeUnknownFieldsSizeERKNS0_15UnknownFieldSetE(ptr noundef nonnull align 8 dereferenceable(24) %.0.i)
  %13 = add i64 %12, %1
  %14 = trunc i64 %13 to i32
  store atomic i32 %14, ptr %2 monotonic, align 4
  ret i64 %13
}